target datalayout = "e-m:e-p270:32:32-p271:32:32-p272:64:64-i64:64-i128:128-f80:128-n8:16:32:64-S128"
target triple = "x86_64-pc-linux-gnu"

; Function Attrs: nounwind sspstrong uwtable
define internal i64 @write_retry(i32 noundef %0, ptr noundef %1, i64 noundef %2) #0 {
  %4 = alloca i32, align 4
  %5 = alloca ptr, align 8
  %6 = alloca i64, align 8
  %7 = alloca i64, align 8
  store i32 %0, ptr %4, align 4, !tbaa !34
  store ptr %1, ptr %5, align 8, !tbaa !62
  store i64 %2, ptr %6, align 8, !tbaa !35
  call void @llvm.lifetime.start.p0(i64 8, ptr %7) #27
  br label %8

8:                                                ; preds = %20, %3
  %9 = load i32, ptr %4, align 4, !tbaa !34
  %10 = load ptr, ptr %5, align 8, !tbaa !62
  %11 = load i64, ptr %6, align 8, !tbaa !35
  %12 = call i64 @write(i32 noundef %9, ptr noundef %10, i64 noundef %11)
  store i64 %12, ptr %7, align 8, !tbaa !35
  br label %13

13:                                               ; preds = %8
  %14 = load i64, ptr %7, align 8, !tbaa !35
  %15 = icmp slt i64 %14, 0
  br i1 %15, label %16, label %20

16:                                               ; preds = %13
  %17 = call ptr @rb_errno_ptr()
  %18 = load i32, ptr %17, align 4, !tbaa !34
  %19 = icmp eq i32 %18, 4
  br label %20

20:                                               ; preds = %16, %13
  %21 = phi i1 [ false, %13 ], [ %19, %16 ]
  br i1 %21, label %8, label %22, !llvm.loop !280

22:                                               ; preds = %20
  %23 = load i64, ptr %7, align 8, !tbaa !35
  call void @llvm.lifetime.end.p0(i64 8, ptr %7) #27
  ret i64 %23
}

; Function Attrs: nounwind sspstrong uwtable
define internal void @send_child_error(i32 noundef %0, ptr noundef %1, i64 noundef %2) #0 {
  %4 = alloca i32, align 4
  %5 = alloca ptr, align 8
  %6 = alloca i64, align 8
  %7 = alloca i32, align 4
  store i32 %0, ptr %4, align 4, !tbaa !34
  store ptr %1, ptr %5, align 8, !tbaa !64
  store i64 %2, ptr %6, align 8, !tbaa !35
  call void @llvm.lifetime.start.p0(i64 4, ptr %7) #27
  %8 = call ptr @rb_errno_ptr()
  %9 = load i32, ptr %8, align 4, !tbaa !34
  store i32 %9, ptr %7, align 4, !tbaa !34
  %10 = load i32, ptr %4, align 4, !tbaa !34
  %11 = call i64 @write_retry(i32 noundef %10, ptr noundef %7, i64 noundef 4)
  %12 = icmp slt i64 %11, 0
  br i1 %12, label %13, label %16

13:                                               ; preds = %3
  %14 = call ptr @rb_errno_ptr()
  %15 = load i32, ptr %14, align 4, !tbaa !34
  store i32 %15, ptr %7, align 4, !tbaa !34
  br label %16

16:                                               ; preds = %13, %3
  %17 = load ptr, ptr %5, align 8, !tbaa !64
  %18 = icmp ne ptr %17, null
  br i1 %18, label %19, label %41

19:                                               ; preds = %16
  %20 = load i64, ptr %6, align 8, !tbaa !35
  %21 = icmp ult i64 0, %20
  br i1 %21, label %22, label %41

22:                                               ; preds = %19
  %23 = load ptr, ptr %5, align 8, !tbaa !64
  %24 = load i64, ptr %6, align 8, !tbaa !35
  %25 = sub i64 %24, 1
  %26 = getelementptr i8, ptr %23, i64 %25
  store i8 0, ptr %26, align 1, !tbaa !66
  %27 = load ptr, ptr %5, align 8, !tbaa !64
  %28 = call i64 @strlen(ptr noundef %27) #29
  store i64 %28, ptr %6, align 8, !tbaa !35
  %29 = load i64, ptr %6, align 8, !tbaa !35
  %30 = icmp ugt i64 %29, 0
  br i1 %30, label %31, label %40

31:                                               ; preds = %22
  %32 = load i32, ptr %4, align 4, !tbaa !34
  %33 = load ptr, ptr %5, align 8, !tbaa !64
  %34 = load i64, ptr %6, align 8, !tbaa !35
  %35 = call i64 @write_retry(i32 noundef %32, ptr noundef %33, i64 noundef %34)
  %36 = icmp slt i64 %35, 0
  br i1 %36, label %37, label %40

37:                                               ; preds = %31
  %38 = call ptr @rb_errno_ptr()
  %39 = load i32, ptr %38, align 4, !tbaa !34
  store i32 %39, ptr %7, align 4, !tbaa !34
  br label %40

40:                                               ; preds = %37, %31, %22
  br label %41

41:                                               ; preds = %40, %19, %16
  call void @llvm.lifetime.end.p0(i64 4, ptr %7) #27
  ret void
}