; Function Attrs: nounwind sspstrong uwtable
define internal fastcc void @send_child_error(i32 noundef %0, ptr noundef captures(address_is_null) %1, i64 noundef %2) unnamed_addr #1 {
  %4 = alloca i32, align 4
  call void @llvm.lifetime.start.p0(i64 4, ptr nonnull %4) #27
  %5 = tail call ptr @rb_errno_ptr() #27
  %6 = load i32, ptr %5, align 4, !tbaa !60
  store i32 %6, ptr %4, align 4, !tbaa !60
  br label %7

7:                                                ; preds = %10, %3
  %8 = call i64 @write(i32 noundef %0, ptr noundef nonnull readonly %4, i64 noundef 4) #27
  %9 = icmp slt i64 %8, 0
  br i1 %9, label %10, label %write_retry.exit

10:                                               ; preds = %7
  %11 = tail call ptr @rb_errno_ptr() #27
  %12 = load i32, ptr %11, align 4, !tbaa !60
  %13 = icmp eq i32 %12, 4
  br i1 %13, label %7, label %14, !llvm.loop !314

14:                                               ; preds = %10
  %15 = tail call ptr @rb_errno_ptr() #27
  br label %write_retry.exit

write_retry.exit:                                 ; preds = %7, %14
  %16 = icmp ne ptr %1, null
  %17 = icmp ne i64 %2, 0
  %or.cond = and i1 %16, %17
  br i1 %or.cond, label %18, label %write_retry.exit12

18:                                               ; preds = %write_retry.exit
  %19 = getelementptr i8, ptr %1, i64 %2
  %20 = getelementptr i8, ptr %19, i64 -1
  store i8 0, ptr %20, align 1, !tbaa !67
  %21 = tail call i64 @strlen(ptr noundef nonnull dereferenceable(1) %1) #28
  %.not = icmp eq i64 %21, 0
  br i1 %.not, label %write_retry.exit12, label %.preheader

.preheader:                                       ; preds = %18, %24
  %22 = tail call i64 @write(i32 noundef %0, ptr noundef nonnull readonly %1, i64 noundef range(i64 1, 0) %21) #27
  %23 = icmp slt i64 %22, 0
  br i1 %23, label %24, label %write_retry.exit12

24:                                               ; preds = %.preheader
  %25 = tail call ptr @rb_errno_ptr() #27
  %26 = load i32, ptr %25, align 4, !tbaa !60
  %27 = icmp eq i32 %26, 4
  br i1 %27, label %.preheader, label %28, !llvm.loop !314

28:                                               ; preds = %24
  %29 = tail call ptr @rb_errno_ptr() #27
  br label %write_retry.exit12

write_retry.exit12:                               ; preds = %.preheader, %18, %28, %write_retry.exit
  call void @llvm.lifetime.end.p0(i64 4, ptr nonnull %4) #27
  ret void
}